target datalayout = "e-m:e-p270:32:32-p271:32:32-p272:64:64-i64:64-i128:128-f80:128-n8:16:32:64-S128"
target triple = "x86_64-pc-linux-gnu"

%class.LogDecorations = type { i64, i64, double, i64, i32, ptr }
%"class.AsyncLogWriter::Buffer" = type { ptr, i64, i64 }
%"class.AsyncLogWriter::Message" = type { ptr, %class.LogDecorations }

@_ZN14AsyncLogWriter4NoneE = hidden global ptr null, align 8
@.str = private unnamed_addr constant [1 x i8] zeroinitializer, align 1

; Function Attrs: mustprogress nounwind uwtable
define linkonce_odr hidden noundef i64 @_Z10align_downImmTnNSt9enable_ifIXcvbsr3std11is_integralIT_EE5valueEiE4typeELi0EES1_S1_T0_(i64 noundef %0, i64 noundef %1) #1 comdat {
  %3 = alloca i64, align 8
  %4 = alloca i64, align 8
  %5 = alloca i64, align 8
  store i64 %0, ptr %3, align 8
  store i64 %1, ptr %4, align 8
  %6 = load i64, ptr %3, align 8
  %7 = load i64, ptr %4, align 8
  %8 = call noundef i64 @_ZL14alignment_maskImTnNSt9enable_ifIXcvbsr3std11is_integralIT_EE5valueEiE4typeELi0EES1_S1_(i64 noundef %7)
  %9 = xor i64 %8, -1
  %10 = and i64 %6, %9
  store i64 %10, ptr %5, align 8
  %11 = load i64, ptr %5, align 8
  ret i64 %11
}

; Function Attrs: mustprogress nounwind uwtable
define linkonce_odr hidden noundef i64 @_Z12checked_castImmET_T0_(i64 noundef %0) #1 comdat {
  %2 = alloca i64, align 8
  %3 = alloca i64, align 8
  store i64 %0, ptr %2, align 8
  %4 = load i64, ptr %2, align 8
  store i64 %4, ptr %3, align 8
  %5 = load i64, ptr %3, align 8
  ret i64 %5
}

; Function Attrs: mustprogress nounwind uwtable
define internal noundef i64 @_ZL14alignment_maskImTnNSt9enable_ifIXcvbsr3std11is_integralIT_EE5valueEiE4typeELi0EES1_S1_(i64 noundef %0) #1 {
  %2 = alloca i64, align 8
  store i64 %0, ptr %2, align 8
  %3 = load i64, ptr %2, align 8
  %4 = sub i64 %3, 1
  ret i64 %4
}

; Function Attrs: mustprogress nounwind uwtable
define linkonce_odr hidden noundef i64 @_Z8align_upImmTnNSt9enable_ifIXcvbsr3std11is_integralIT_EE5valueEiE4typeELi0EES1_S1_T0_(i64 noundef %0, i64 noundef %1) #1 comdat {
  %3 = alloca i64, align 8
  %4 = alloca i64, align 8
  %5 = alloca i64, align 8
  store i64 %0, ptr %3, align 8
  store i64 %1, ptr %4, align 8
  %6 = load i64, ptr %3, align 8
  %7 = load i64, ptr %4, align 8
  %8 = call noundef i64 @_ZL14alignment_maskImTnNSt9enable_ifIXcvbsr3std11is_integralIT_EE5valueEiE4typeELi0EES1_S1_(i64 noundef %7)
  %9 = add i64 %6, %8
  %10 = call noundef i64 @_Z12checked_castImmET_T0_(i64 noundef %9)
  store i64 %10, ptr %5, align 8
  %11 = load i64, ptr %5, align 8
  %12 = load i64, ptr %4, align 8
  %13 = call noundef i64 @_Z10align_downImmTnNSt9enable_ifIXcvbsr3std11is_integralIT_EE5valueEiE4typeELi0EES1_S1_T0_(i64 noundef %11, i64 noundef %12)
  ret i64 %13
}

; Function Attrs: mustprogress nounwind uwtable
define linkonce_odr hidden void @_ZN14AsyncLogWriter7MessageC2EP19LogFileStreamOutputRK14LogDecorationsPKcm(ptr noundef nonnull align 8 dereferenceable(56) %0, ptr noundef %1, ptr noundef nonnull align 8 dereferenceable(48) %2, ptr noundef %3, i64 noundef %4) unnamed_addr #1 comdat align 2 {
  %6 = alloca ptr, align 8
  %7 = alloca ptr, align 8
  %8 = alloca ptr, align 8
  %9 = alloca ptr, align 8
  %10 = alloca i64, align 8
  store ptr %0, ptr %6, align 8
  store ptr %1, ptr %7, align 8
  store ptr %2, ptr %8, align 8
  store ptr %3, ptr %9, align 8
  store i64 %4, ptr %10, align 8
  %11 = load ptr, ptr %6, align 8
  %12 = getelementptr inbounds %"class.AsyncLogWriter::Message", ptr %11, i32 0, i32 0
  %13 = load ptr, ptr %7, align 8
  store ptr %13, ptr %12, align 8
  %14 = getelementptr inbounds %"class.AsyncLogWriter::Message", ptr %11, i32 0, i32 1
  %15 = load ptr, ptr %8, align 8
  call void @llvm.memcpy.p0.p0.i64(ptr align 8 %14, ptr align 8 %15, i64 48, i1 false)
  %16 = getelementptr inbounds %"class.AsyncLogWriter::Message", ptr %11, i64 1
  %17 = load ptr, ptr %9, align 8
  %18 = load i64, ptr %10, align 8
  %19 = add i64 %18, 1
  call void @llvm.memcpy.p0.p0.i64(ptr align 1 %16, ptr align 1 %17, i64 %19, i1 false)
  ret void
}

; Function Attrs: mustprogress nounwind uwtable
define linkonce_odr hidden noundef i64 @_ZN14AsyncLogWriter7Message9calc_sizeEm(i64 noundef %0) #1 comdat align 2 {
  %2 = alloca i64, align 8
  store i64 %0, ptr %2, align 8
  %3 = load i64, ptr %2, align 8
  %4 = add i64 56, %3
  %5 = add i64 %4, 1
  %6 = call noundef i64 @_Z8align_upImmTnNSt9enable_ifIXcvbsr3std11is_integralIT_EE5valueEiE4typeELi0EES1_S1_T0_(i64 noundef %5, i64 noundef 8)
  ret i64 %6
}

; Function Attrs: mustprogress nounwind uwtable
define hidden noundef zeroext i1 @_ZN14AsyncLogWriter6Buffer9push_backEP19LogFileStreamOutputRK14LogDecorationsPKc(ptr noundef nonnull align 8 dereferenceable(24) %0, ptr noundef %1, ptr noundef nonnull align 8 dereferenceable(48) %2, ptr noundef %3) #1 align 2 {
  %5 = alloca i1, align 1
  %6 = alloca ptr, align 8
  %7 = alloca ptr, align 8
  %8 = alloca ptr, align 8
  %9 = alloca ptr, align 8
  %10 = alloca i64, align 8
  %11 = alloca i64, align 8
  %12 = alloca i8, align 1
  %13 = alloca i64, align 8
  store ptr %0, ptr %6, align 8
  store ptr %1, ptr %7, align 8
  store ptr %2, ptr %8, align 8
  store ptr %3, ptr %9, align 8
  %14 = load ptr, ptr %6, align 8
  %15 = load ptr, ptr %9, align 8
  %16 = call i64 @strlen(ptr noundef %15) #9
  store i64 %16, ptr %10, align 8
  %17 = load i64, ptr %10, align 8
  %18 = call noundef i64 @_ZN14AsyncLogWriter7Message9calc_sizeEm(i64 noundef %17)
  store i64 %18, ptr %11, align 8
  %19 = load ptr, ptr %7, align 8
  %20 = icmp eq ptr %19, null
  %21 = zext i1 %20 to i8
  store i8 %21, ptr %12, align 1
  %22 = load i8, ptr %12, align 1
  %23 = trunc i8 %22 to i1
  %24 = xor i1 %23, true
  %25 = call noundef i64 @_ZN14AsyncLogWriter7Message9calc_sizeEm(i64 noundef 0)
  %26 = select i1 %24, i64 %25, i64 0
  store i64 %26, ptr %13, align 8
  %27 = getelementptr inbounds %"class.AsyncLogWriter::Buffer", ptr %14, i32 0, i32 1
  %28 = load i64, ptr %27, align 8
  %29 = load i64, ptr %11, align 8
  %30 = add i64 %28, %29
  %31 = getelementptr inbounds %"class.AsyncLogWriter::Buffer", ptr %14, i32 0, i32 2
  %32 = load i64, ptr %31, align 8
  %33 = load i64, ptr %13, align 8
  %34 = sub i64 %32, %33
  %35 = icmp ule i64 %30, %34
  br i1 %35, label %36, label %50

36:                                               ; preds = %4
  %37 = getelementptr inbounds %"class.AsyncLogWriter::Buffer", ptr %14, i32 0, i32 0
  %38 = load ptr, ptr %37, align 8
  %39 = getelementptr inbounds %"class.AsyncLogWriter::Buffer", ptr %14, i32 0, i32 1
  %40 = load i64, ptr %39, align 8
  %41 = getelementptr inbounds i8, ptr %38, i64 %40
  %42 = load ptr, ptr %7, align 8
  %43 = load ptr, ptr %8, align 8
  %44 = load ptr, ptr %9, align 8
  %45 = load i64, ptr %10, align 8
  call void @_ZN14AsyncLogWriter7MessageC2EP19LogFileStreamOutputRK14LogDecorationsPKcm(ptr noundef nonnull align 8 dereferenceable(56) %41, ptr noundef %42, ptr noundef nonnull align 8 dereferenceable(48) %43, ptr noundef %44, i64 noundef %45)
  %46 = load i64, ptr %11, align 8
  %47 = getelementptr inbounds %"class.AsyncLogWriter::Buffer", ptr %14, i32 0, i32 1
  %48 = load i64, ptr %47, align 8
  %49 = add i64 %48, %46
  store i64 %49, ptr %47, align 8
  store i1 true, ptr %5, align 1
  br label %51

50:                                               ; preds = %4
  store i1 false, ptr %5, align 1
  br label %51

51:                                               ; preds = %50, %36
  %52 = load i1, ptr %5, align 1
  ret i1 %52
}

; Function Attrs: mustprogress nounwind uwtable
define hidden void @_ZN14AsyncLogWriter6Buffer16push_flush_tokenEv(ptr noundef nonnull align 8 dereferenceable(24) %0) #1 align 2 {
  %2 = alloca ptr, align 8
  %3 = alloca i8, align 1
  store ptr %0, ptr %2, align 8
  %4 = load ptr, ptr %2, align 8
  %5 = load ptr, ptr @_ZN14AsyncLogWriter4NoneE, align 8
  %6 = call noundef zeroext i1 @_ZN14AsyncLogWriter6Buffer9push_backEP19LogFileStreamOutputRK14LogDecorationsPKc(ptr noundef nonnull align 8 dereferenceable(24) %4, ptr noundef null, ptr noundef nonnull align 8 dereferenceable(48) %5, ptr noundef @.str)
  %7 = zext i1 %6 to i8
  store i8 %7, ptr %3, align 1
  ret void
}