; Function Attrs: mustprogress nofree norecurse nosync nounwind willreturn memory(readwrite, inaccessiblemem: none) uwtable
define hidden void @_ZN14AsyncLogWriter6Buffer16push_flush_tokenEv(ptr nocapture noundef nonnull align 8 dereferenceable(24) %0) local_unnamed_addr #3 align 2 {
  %2 = getelementptr inbounds i8, ptr %0, i64 8
  %3 = load i64, ptr %2, align 8
  %4 = add i64 %3, 64
  %5 = getelementptr inbounds i8, ptr %0, i64 16
  %6 = load i64, ptr %5, align 8
  %.not12.i.not = icmp ugt i64 %4, %6
  br i1 %.not12.i.not, label %_ZN14AsyncLogWriter6Buffer9push_backEP19LogFileStreamOutputRK14LogDecorationsPKc.exit, label %7

7:                                                ; preds = %1
  %8 = load ptr, ptr @_ZN14AsyncLogWriter4NoneE, align 8
  %9 = load ptr, ptr %0, align 8
  %10 = getelementptr inbounds i8, ptr %9, i64 %3
  store ptr null, ptr %10, align 8
  %11 = getelementptr inbounds i8, ptr %10, i64 8
  tail call void @llvm.memcpy.p0.p0.i64(ptr noundef nonnull align 8 dereferenceable(48) %11, ptr noundef nonnull readonly align 8 dereferenceable(48) %8, i64 48, i1 false)
  %12 = getelementptr inbounds i8, ptr %10, i64 56
  store i8 0, ptr %12, align 8
  %13 = load i64, ptr %2, align 8
  %14 = add i64 %13, 64
  store i64 %14, ptr %2, align 8
  br label %_ZN14AsyncLogWriter6Buffer9push_backEP19LogFileStreamOutputRK14LogDecorationsPKc.exit

_ZN14AsyncLogWriter6Buffer9push_backEP19LogFileStreamOutputRK14LogDecorationsPKc.exit: ; preds = %1, %7
  ret void
}